; Function Attrs: nounwind uwtable
define void @Gia_ManCofExtendSolver(ptr noundef readonly captures(none) %0) local_unnamed_addr #0 {
  %2 = alloca [3 x i32], align 4
  %3 = getelementptr inbounds nuw i8, ptr %0, i64 48
  %4 = load ptr, ptr %3, align 8, !tbaa !27
  %5 = tail call i32 @sat_solver_nvars(ptr noundef %4) #17
  %6 = getelementptr inbounds nuw i8, ptr %0, i64 32
  %7 = load ptr, ptr %6, align 8, !tbaa !28
  %8 = getelementptr i8, ptr %7, i64 24
  %.val24 = load i32, ptr %8, align 8, !tbaa !29
  %9 = icmp slt i32 %5, %.val24
  br i1 %9, label %.lr.ph, label %._crit_edge

.lr.ph:                                           ; preds = %1
  %10 = getelementptr inbounds nuw i8, ptr %2, i64 4
  %11 = getelementptr inbounds nuw i8, ptr %2, i64 8
  %12 = getelementptr inbounds nuw i8, ptr %2, i64 12
  %13 = sext i32 %5 to i64
  br label %14

14:                                               ; preds = %.lr.ph, %49
  %15 = phi ptr [ %7, %.lr.ph ], [ %50, %49 ]
  %indvars.iv = phi i64 [ %13, %.lr.ph ], [ %indvars.iv.next, %49 ]
  %16 = getelementptr i8, ptr %15, i64 32
  %.val17 = load ptr, ptr %16, align 8, !tbaa !46
  %17 = getelementptr inbounds %struct.Gia_Obj_t_, ptr %.val17, i64 %indvars.iv
  %.val18 = load i64, ptr %17, align 4
  %18 = and i64 %.val18, 2147483648
  %.not.i = icmp ne i64 %18, 0
  %19 = and i64 %.val18, 536870911
  %20 = icmp eq i64 %19, 536870911
  %narrow.i.not = or i1 %.not.i, %20
  br i1 %narrow.i.not, label %49, label %21

21:                                               ; preds = %14
  %22 = load ptr, ptr %3, align 8, !tbaa !27
  %23 = trunc i64 %.val18 to i32
  %24 = and i32 %23, 536870911
  %25 = trunc nsw i64 %indvars.iv to i32
  %26 = sub nsw i32 %25, %24
  %27 = lshr i64 %.val18, 32
  %28 = trunc nuw i64 %27 to i32
  %29 = and i32 %28, 536870911
  %30 = sub nsw i32 %25, %29
  %31 = lshr i32 %23, 29
  %32 = and i32 %31, 1
  %33 = lshr i64 %.val18, 61
  %34 = trunc nuw nsw i64 %33 to i32
  %35 = and i32 %34, 1
  call void @llvm.lifetime.start.p0(i64 12, ptr nonnull %2) #17
  %36 = shl nsw i64 %indvars.iv, 1
  %37 = trunc i64 %36 to i32
  %38 = or disjoint i32 %37, 1
  store i32 %38, ptr %2, align 4, !tbaa !47
  %39 = shl nsw i32 %26, 1
  %40 = or disjoint i32 %39, %32
  store i32 %40, ptr %10, align 4, !tbaa !47
  %41 = call i32 @sat_solver_addclause(ptr noundef %22, ptr noundef nonnull %2, ptr noundef nonnull %11) #17
  store i32 %38, ptr %2, align 4, !tbaa !47
  %42 = shl nsw i32 %30, 1
  %43 = or disjoint i32 %42, %35
  store i32 %43, ptr %10, align 4, !tbaa !47
  %44 = call i32 @sat_solver_addclause(ptr noundef %22, ptr noundef nonnull %2, ptr noundef nonnull %11) #17
  %45 = trunc nsw i64 %36 to i32
  store i32 %45, ptr %2, align 4, !tbaa !47
  %46 = xor i32 %40, 1
  store i32 %46, ptr %10, align 4, !tbaa !47
  %47 = xor i32 %43, 1
  store i32 %47, ptr %11, align 4, !tbaa !47
  %48 = call i32 @sat_solver_addclause(ptr noundef %22, ptr noundef nonnull %2, ptr noundef nonnull %12) #17
  call void @llvm.lifetime.end.p0(i64 12, ptr nonnull %2) #17
  %.pre = load ptr, ptr %6, align 8, !tbaa !28
  br label %49

49:                                               ; preds = %14, %21
  %50 = phi ptr [ %15, %14 ], [ %.pre, %21 ]
  %indvars.iv.next = add nsw i64 %indvars.iv, 1
  %51 = getelementptr i8, ptr %50, i64 24
  %.val = load i32, ptr %51, align 8, !tbaa !29
  %52 = sext i32 %.val to i64
  %53 = icmp slt i64 %indvars.iv.next, %52
  br i1 %53, label %14, label %._crit_edge, !llvm.loop !48

._crit_edge:                                      ; preds = %49, %1
  %.val.lcssa = phi i32 [ %.val24, %1 ], [ %.val, %49 ]
  %54 = load ptr, ptr %3, align 8, !tbaa !27
  call void @sat_solver_setnvars(ptr noundef %54, i32 noundef %.val.lcssa) #17
  ret void
}